; Function Attrs: nounwind uwtable
define hidden noalias ptr @mi_calloc_aligned_at(i64 noundef %0, i64 noundef %1, i64 noundef %2, i64 noundef %3) local_unnamed_addr #0 {
  %5 = tail call align 8 ptr @llvm.threadlocal.address.p0(ptr align 8 @_mi_heap_default)
  %6 = load ptr, ptr %5, align 8, !tbaa !17
  %.not.i = icmp eq i64 %0, 1
  br i1 %.not.i, label %11, label %7

7:                                                ; preds = %4
  %8 = tail call { i64, i1 } @llvm.umul.with.overflow.i64(i64 range(i64 2, 1) %0, i64 %1)
  %9 = extractvalue { i64, i1 } %8, 1
  %10 = extractvalue { i64, i1 } %8, 0
  br i1 %9, label %mi_heap_calloc_aligned_at.exit, label %11, !prof !16

11:                                               ; preds = %7, %4
  %storemerge.i.ph.i = phi i64 [ %1, %4 ], [ %10, %7 ]
  %12 = tail call range(i64 0, 65) i64 @llvm.ctpop.i64(i64 range(i64 1, 0) %2)
  %or.cond.not.i.i.i = icmp eq i64 %12, 1
  br i1 %or.cond.not.i.i.i, label %13, label %mi_heap_calloc_aligned_at.exit, !prof !3

13:                                               ; preds = %11
  %14 = icmp ult i64 %storemerge.i.ph.i, 1025
  %15 = icmp ule i64 %2, %storemerge.i.ph.i
  %16 = and i1 %14, %15
  br i1 %16, label %17, label %.thread.i.i.i, !prof !4

17:                                               ; preds = %13
  %18 = add nuw nsw i64 %storemerge.i.ph.i, 7
  %19 = lshr i64 %18, 3
  %20 = getelementptr inbounds nuw i8, ptr %6, i64 232
  %21 = getelementptr inbounds nuw [129 x ptr], ptr %20, i64 0, i64 %19
  %22 = load ptr, ptr %21, align 8, !tbaa !5
  %23 = getelementptr inbounds nuw i8, ptr %22, i64 8
  %24 = load ptr, ptr %23, align 8, !tbaa !10
  %.not.i.i.i = icmp eq ptr %24, null
  br i1 %.not.i.i.i, label %.thread.i.i.i, label %25, !prof !16

25:                                               ; preds = %17
  %26 = add i64 %2, -1
  %27 = ptrtoint ptr %24 to i64
  %28 = add i64 %3, %27
  %29 = and i64 %28, %26
  %.not36.i.i.i = icmp eq i64 %29, 0
  br i1 %.not36.i.i.i, label %30, label %.thread.i.i.i, !prof !4

30:                                               ; preds = %25
  %31 = tail call ptr @_mi_page_malloc_zeroed(ptr noundef nonnull %6, ptr noundef nonnull %22, i64 noundef %storemerge.i.ph.i) #8
  br label %mi_heap_calloc_aligned_at.exit

.thread.i.i.i:                                    ; preds = %25, %17, %13
  %32 = tail call fastcc ptr @mi_heap_malloc_zero_aligned_at_generic(ptr noundef %6, i64 noundef %storemerge.i.ph.i, i64 noundef %2, i64 noundef %3, i1 noundef zeroext true) #9
  br label %mi_heap_calloc_aligned_at.exit

mi_heap_calloc_aligned_at.exit:                   ; preds = %7, %11, %30, %.thread.i.i.i
  %.0.i = phi ptr [ null, %7 ], [ %32, %.thread.i.i.i ], [ null, %11 ], [ %31, %30 ]
  ret ptr %.0.i
}